target datalayout = "e-m:e-p270:32:32-p271:32:32-p272:64:64-i64:64-i128:128-f80:128-n8:16:32:64-S128"
target triple = "x86_64-pc-linux-gnu"

@.str.1 = private unnamed_addr constant [10 x i8] c"utility.c\00", align 1
@.str.3 = private unnamed_addr constant [46 x i8] c"cannot execute %s during a parallel operation\00", align 1
@__func__.PreventCommandIfParallelMode = private unnamed_addr constant [29 x i8] c"PreventCommandIfParallelMode\00", align 1

; Function Attrs: nounwind uwtable
define dso_local void @PreventCommandIfParallelMode(ptr noundef %0) #0 {
  %2 = alloca ptr, align 8
  store ptr %0, ptr %2, align 8
  %3 = call zeroext i1 @IsInParallelMode()
  br i1 %3, label %4, label %16

4:                                                ; preds = %1
  br label %5

5:                                                ; preds = %4
  br i1 true, label %6, label %8

6:                                                ; preds = %5
  %7 = call zeroext i1 @errstart_cold(i32 noundef 21, ptr noundef null) #10
  br i1 %7, label %10, label %14

8:                                                ; preds = %5
  %9 = call zeroext i1 @errstart(i32 noundef 21, ptr noundef null)
  br i1 %9, label %10, label %14

10:                                               ; preds = %8, %6
  %11 = call i32 @errcode(i32 noundef 322)
  %12 = load ptr, ptr %2, align 8
  %13 = call i32 (ptr, ...) @errmsg(ptr noundef @.str.3, ptr noundef %12)
  call void @errfinish(ptr noundef @.str.1, i32 noundef 429, ptr noundef @__func__.PreventCommandIfParallelMode)
  br label %14

14:                                               ; preds = %10, %8, %6
  unreachable

15:                                               ; No predecessors!
  br label %16

16:                                               ; preds = %15, %1
  ret void
}