; Function Attrs: nounwind uwtable
define dso_local void @PreventCommandIfParallelMode(ptr noundef %0) local_unnamed_addr #0 {
  %2 = tail call zeroext i1 @IsInParallelMode() #11
  br i1 %2, label %3, label %7

3:                                                ; preds = %1
  %4 = tail call zeroext i1 @errstart_cold(i32 noundef 21, ptr noundef null) #12
  tail call void @llvm.assume(i1 %4)
  %5 = tail call i32 @errcode(i32 noundef 322) #11
  %6 = tail call i32 (ptr, ...) @errmsg(ptr noundef nonnull @.str.3, ptr noundef %0) #11
  tail call void @errfinish(ptr noundef nonnull @.str.1, i32 noundef 429, ptr noundef nonnull @__func__.PreventCommandIfParallelMode) #11
  unreachable

7:                                                ; preds = %1
  ret void
}